target datalayout = "e-m:e-p270:32:32-p271:32:32-p272:64:64-i64:64-i128:128-f80:128-n8:16:32:64-S128"
target triple = "x86_64-pc-linux-gnu"

; Function Attrs: inlinehint nounwind uwtable
define internal zeroext i1 @skip_prefix(ptr noundef %0, ptr noundef %1, ptr noundef %2) #1 {
  %4 = alloca i1, align 1
  %5 = alloca ptr, align 8
  %6 = alloca ptr, align 8
  %7 = alloca ptr, align 8
  store ptr %0, ptr %5, align 8, !tbaa !4
  store ptr %1, ptr %6, align 8, !tbaa !4
  store ptr %2, ptr %7, align 8, !tbaa !14
  br label %8

8:                                                ; preds = %16, %3
  %9 = load ptr, ptr %6, align 8, !tbaa !4
  %10 = load i8, ptr %9, align 1, !tbaa !9
  %11 = icmp ne i8 %10, 0
  br i1 %11, label %15, label %12

12:                                               ; preds = %8
  %13 = load ptr, ptr %5, align 8, !tbaa !4
  %14 = load ptr, ptr %7, align 8, !tbaa !14
  store ptr %13, ptr %14, align 8, !tbaa !4
  store i1 true, ptr %4, align 1
  br label %27

15:                                               ; preds = %8
  br label %16

16:                                               ; preds = %15
  %17 = load ptr, ptr %5, align 8, !tbaa !4
  %18 = getelementptr inbounds nuw i8, ptr %17, i32 1
  store ptr %18, ptr %5, align 8, !tbaa !4
  %19 = load i8, ptr %17, align 1, !tbaa !9
  %20 = sext i8 %19 to i32
  %21 = load ptr, ptr %6, align 8, !tbaa !4
  %22 = getelementptr inbounds nuw i8, ptr %21, i32 1
  store ptr %22, ptr %6, align 8, !tbaa !4
  %23 = load i8, ptr %21, align 1, !tbaa !9
  %24 = sext i8 %23 to i32
  %25 = icmp eq i32 %20, %24
  br i1 %25, label %8, label %26, !llvm.loop !16

26:                                               ; preds = %16
  store i1 false, ptr %4, align 1
  br label %27

27:                                               ; preds = %26, %12
  %28 = load i1, ptr %4, align 1
  ret i1 %28
}

; Function Attrs: nounwind uwtable
define dso_local i32 @skip_to_optional_arg_default(ptr noundef %0, ptr noundef %1, ptr noundef %2, ptr noundef %3) #0 {
  %5 = alloca i32, align 4
  %6 = alloca ptr, align 8
  %7 = alloca ptr, align 8
  %8 = alloca ptr, align 8
  %9 = alloca ptr, align 8
  %10 = alloca ptr, align 8
  %11 = alloca i32, align 4
  store ptr %0, ptr %6, align 8, !tbaa !4
  store ptr %1, ptr %7, align 8, !tbaa !4
  store ptr %2, ptr %8, align 8, !tbaa !14
  store ptr %3, ptr %9, align 8, !tbaa !4
  call void @llvm.lifetime.start.p0(i64 8, ptr %10) #11
  %12 = load ptr, ptr %6, align 8, !tbaa !4
  %13 = load ptr, ptr %7, align 8, !tbaa !4
  %14 = call zeroext i1 @skip_prefix(ptr noundef %12, ptr noundef %13, ptr noundef %10)
  br i1 %14, label %16, label %15

15:                                               ; preds = %4
  store i32 0, ptr %5, align 4
  store i32 1, ptr %11, align 4
  br label %41

16:                                               ; preds = %4
  %17 = load ptr, ptr %10, align 8, !tbaa !4
  %18 = load i8, ptr %17, align 1, !tbaa !9
  %19 = icmp ne i8 %18, 0
  br i1 %19, label %27, label %20

20:                                               ; preds = %16
  %21 = load ptr, ptr %8, align 8, !tbaa !14
  %22 = icmp ne ptr %21, null
  br i1 %22, label %23, label %26

23:                                               ; preds = %20
  %24 = load ptr, ptr %9, align 8, !tbaa !4
  %25 = load ptr, ptr %8, align 8, !tbaa !14
  store ptr %24, ptr %25, align 8, !tbaa !4
  br label %26

26:                                               ; preds = %23, %20
  store i32 1, ptr %5, align 4
  store i32 1, ptr %11, align 4
  br label %41

27:                                               ; preds = %16
  %28 = load ptr, ptr %10, align 8, !tbaa !4
  %29 = load i8, ptr %28, align 1, !tbaa !9
  %30 = sext i8 %29 to i32
  %31 = icmp ne i32 %30, 61
  br i1 %31, label %32, label %33

32:                                               ; preds = %27
  store i32 0, ptr %5, align 4
  store i32 1, ptr %11, align 4
  br label %41

33:                                               ; preds = %27
  %34 = load ptr, ptr %8, align 8, !tbaa !14
  %35 = icmp ne ptr %34, null
  br i1 %35, label %36, label %40

36:                                               ; preds = %33
  %37 = load ptr, ptr %10, align 8, !tbaa !4
  %38 = getelementptr inbounds i8, ptr %37, i64 1
  %39 = load ptr, ptr %8, align 8, !tbaa !14
  store ptr %38, ptr %39, align 8, !tbaa !4
  br label %40

40:                                               ; preds = %36, %33
  store i32 1, ptr %5, align 4
  store i32 1, ptr %11, align 4
  br label %41

41:                                               ; preds = %40, %32, %26, %15
  call void @llvm.lifetime.end.p0(i64 8, ptr %10) #11
  %42 = load i32, ptr %5, align 4
  ret i32 %42
}