; Function Attrs: nofree norecurse nosync nounwind memory(argmem: readwrite) uwtable
define dso_local range(i32 0, 2) i32 @skip_to_optional_arg_default(ptr noundef %0, ptr noundef readonly captures(none) %1, ptr noundef writeonly %2, ptr noundef %3) local_unnamed_addr #2 {
  br label %5

5:                                                ; preds = %7, %4
  %.07.i = phi ptr [ %0, %4 ], [ %8, %7 ]
  %.06.i = phi ptr [ %1, %4 ], [ %10, %7 ]
  %6 = load i8, ptr %.06.i, align 1, !tbaa !4
  %.not.i = icmp eq i8 %6, 0
  br i1 %.not.i, label %12, label %7

7:                                                ; preds = %5
  %8 = getelementptr inbounds nuw i8, ptr %.07.i, i64 1
  %9 = load i8, ptr %.07.i, align 1, !tbaa !4
  %10 = getelementptr inbounds nuw i8, ptr %.06.i, i64 1
  %11 = icmp eq i8 %9, %6
  br i1 %11, label %5, label %skip_prefix.exit, !llvm.loop !7

12:                                               ; preds = %5
  %13 = load i8, ptr %.07.i, align 1, !tbaa !4
  switch i8 %13, label %skip_prefix.exit [
    i8 0, label %14
    i8 61, label %15
  ]

14:                                               ; preds = %12
  %.not9 = icmp eq ptr %2, null
  br i1 %.not9, label %skip_prefix.exit, label %skip_prefix.exit.sink.split

15:                                               ; preds = %12
  %.not11 = icmp eq ptr %2, null
  br i1 %.not11, label %skip_prefix.exit, label %16

16:                                               ; preds = %15
  %17 = getelementptr inbounds nuw i8, ptr %.07.i, i64 1
  br label %skip_prefix.exit.sink.split

skip_prefix.exit.sink.split:                      ; preds = %14, %16
  %.sink = phi ptr [ %17, %16 ], [ %3, %14 ]
  store ptr %.sink, ptr %2, align 8, !tbaa !9
  br label %skip_prefix.exit

skip_prefix.exit:                                 ; preds = %7, %skip_prefix.exit.sink.split, %15, %12, %14
  %.0 = phi i32 [ 1, %14 ], [ 0, %12 ], [ 1, %15 ], [ 1, %skip_prefix.exit.sink.split ], [ 0, %7 ]
  ret i32 %.0
}